LIBRARY RKC_RPG_AICONTROL
EXPORTS
; ============================================================================
; RKC_RPG_AICONTROL - Main controller (some used by exe)
; ============================================================================
??0RKC_RPG_AICONTROL@@QAE@XZ=o_RKC_RPG_AICONTROL.??0RKC_RPG_AICONTROL@@QAE@XZ @1
??1RKC_RPG_AICONTROL@@QAE@XZ=o_RKC_RPG_AICONTROL.??1RKC_RPG_AICONTROL@@QAE@XZ @5
??4RKC_RPG_AICONTROL@@QAEAAV0@ABV0@@Z=RKC_RPG_AICONTROL_operatorAssign @9
?Copy@RKC_RPG_AICONTROL@@QAEHPAV1@@Z=RKC_RPG_AICONTROL_Copy @13
?Delete@RKC_RPG_AICONTROL@@QAEHJPAPAVRKC_RPG_AILIST@@@Z=RKC_RPG_AICONTROL_Delete @17
?Get@RKC_RPG_AICONTROL@@QAEPAVRKC_RPG_AILIST@@J@Z=o_RKC_RPG_AICONTROL.?Get@RKC_RPG_AICONTROL@@QAEPAVRKC_RPG_AILIST@@J@Z @19
?GetCount@RKC_RPG_AICONTROL@@QAEJXZ=RKC_RPG_AICONTROL_GetCount @27
?GetFromName@RKC_RPG_AICONTROL@@QAEPAVRKC_RPG_AILIST@@PAD@Z=o_RKC_RPG_AICONTROL.?GetFromName@RKC_RPG_AICONTROL@@QAEPAVRKC_RPG_AILIST@@PAD@Z @32
?GetNo@RKC_RPG_AICONTROL@@QAEJPAVRKC_RPG_AILIST@@@Z=o_RKC_RPG_AICONTROL.?GetNo@RKC_RPG_AICONTROL@@QAEJPAVRKC_RPG_AILIST@@@Z @34
?Insert@RKC_RPG_AICONTROL@@QAEPAVRKC_RPG_AILIST@@JPAV2@@Z=RKC_RPG_AICONTROL_Insert @38
?ReadFile@RKC_RPG_AICONTROL@@QAEHPAD@Z=o_RKC_RPG_AICONTROL.?ReadFile@RKC_RPG_AICONTROL@@QAEHPAD@Z @40
?Release@RKC_RPG_AICONTROL@@QAEXXZ=RKC_RPG_AICONTROL_Release @41
?WriteFile@RKC_RPG_AICONTROL@@QAEHPAD@Z=RKC_RPG_AICONTROL_WriteFile @51

; ============================================================================
; RKC_RPG_AIDATA - AI data item (some used by exe)
; ============================================================================
??0RKC_RPG_AIDATA@@QAE@XZ=o_RKC_RPG_AICONTROL.??0RKC_RPG_AIDATA@@QAE@XZ @2
??1RKC_RPG_AIDATA@@QAE@XZ=o_RKC_RPG_AICONTROL.??1RKC_RPG_AIDATA@@QAE@XZ @6
??4RKC_RPG_AIDATA@@QAEAAV0@ABV0@@Z=RKC_RPG_AIDATA_operatorAssign @10
?Copy@RKC_RPG_AIDATA@@QAEHPAV1@@Z=o_RKC_RPG_AICONTROL.?Copy@RKC_RPG_AIDATA@@QAEHPAV1@@Z @14
?GetActionNo@RKC_RPG_AIDATA@@QAEJXZ=o_RKC_RPG_AICONTROL.?GetActionNo@RKC_RPG_AIDATA@@QAEJXZ @25
?GetCondition@RKC_RPG_AIDATA@@QAEPAURKC_RPG_AICONDITION@@XZ=o_RKC_RPG_AICONTROL.?GetCondition@RKC_RPG_AIDATA@@QAEPAURKC_RPG_AICONDITION@@XZ @26
?GetEventNo@RKC_RPG_AIDATA@@QAEJXZ=RKC_RPG_AIDATA_GetEventNo @30
?GetParameter@RKC_RPG_AIDATA@@QAEPAURKC_RPG_AIPARAM@@XZ=o_RKC_RPG_AICONTROL.?GetParameter@RKC_RPG_AIDATA@@QAEPAURKC_RPG_AIPARAM@@XZ @36
?Release@RKC_RPG_AIDATA@@QAEXXZ=RKC_RPG_AIDATA_Release @42
?SetActionNo@RKC_RPG_AIDATA@@QAEXJ@Z=RKC_RPG_AIDATA_SetActionNo @45
?SetCondition@RKC_RPG_AIDATA@@QAEXPAURKC_RPG_AICONDITION@@@Z=RKC_RPG_AIDATA_SetCondition @46
?SetEventNo@RKC_RPG_AIDATA@@QAEXJ@Z=RKC_RPG_AIDATA_SetEventNo @47
?SetParameter@RKC_RPG_AIDATA@@QAEXPAURKC_RPG_AIPARAM@@@Z=RKC_RPG_AIDATA_SetParameter @49

; ============================================================================
; RKC_RPG_AIEVENT - AI event (some used by exe)
; ============================================================================
??0RKC_RPG_AIEVENT@@QAE@XZ=o_RKC_RPG_AICONTROL.??0RKC_RPG_AIEVENT@@QAE@XZ @3
??1RKC_RPG_AIEVENT@@QAE@XZ=o_RKC_RPG_AICONTROL.??1RKC_RPG_AIEVENT@@QAE@XZ @7
??4RKC_RPG_AIEVENT@@QAEAAV0@ABV0@@Z=RKC_RPG_AIEVENT_operatorAssign @11
?Copy@RKC_RPG_AIEVENT@@QAEHPAV1@@Z=RKC_RPG_AIEVENT_Copy @15
?Delete@RKC_RPG_AIEVENT@@QAEHJPAPAVRKC_RPG_AIDATA@@@Z=RKC_RPG_AIEVENT_Delete @18
?Get@RKC_RPG_AIEVENT@@QAEPAVRKC_RPG_AIDATA@@J@Z=o_RKC_RPG_AICONTROL.?Get@RKC_RPG_AIEVENT@@QAEPAVRKC_RPG_AIDATA@@J@Z @20
?GetCount@RKC_RPG_AIEVENT@@QAEJXZ=o_RKC_RPG_AICONTROL.?GetCount@RKC_RPG_AIEVENT@@QAEJXZ @28
?GetNo@RKC_RPG_AIEVENT@@QAEJPAVRKC_RPG_AIDATA@@@Z=RKC_RPG_AIEVENT_GetNo @35
?Insert@RKC_RPG_AIEVENT@@QAEPAVRKC_RPG_AIDATA@@JPAV2@@Z=o_RKC_RPG_AICONTROL.?Insert@RKC_RPG_AIEVENT@@QAEPAVRKC_RPG_AIDATA@@JPAV2@@Z @39
?Release@RKC_RPG_AIEVENT@@QAEXXZ=o_RKC_RPG_AICONTROL.?Release@RKC_RPG_AIEVENT@@QAEXXZ @43

; ============================================================================
; RKC_RPG_AILIST - AI list (NOT USED BY EXE - all stubbed)
; ============================================================================
??0RKC_RPG_AILIST@@QAE@XZ=RKC_RPG_AILIST_constructor @4
??1RKC_RPG_AILIST@@QAE@XZ=RKC_RPG_AILIST_destructor @8
??4RKC_RPG_AILIST@@QAEAAV0@ABV0@@Z=RKC_RPG_AILIST_operatorAssign @12
?Copy@RKC_RPG_AILIST@@QAEHPAV1@@Z=RKC_RPG_AILIST_Copy @16
?Get@RKC_RPG_AILIST@@QAEPAVRKC_RPG_AIEVENT@@J@Z=o_RKC_RPG_AICONTROL.?Get@RKC_RPG_AILIST@@QAEPAVRKC_RPG_AIEVENT@@J@Z @21
?GetAIData@RKC_RPG_AILIST@@QAEPAVRKC_RPG_AIDATA@@JJ@Z=RKC_RPG_AILIST_GetAIData @22
?GetAIDataCount@RKC_RPG_AILIST@@QAEJXZ=RKC_RPG_AILIST_GetAIDataCount @23
?GetAIDataFromAIDataNo@RKC_RPG_AILIST@@QAEPAVRKC_RPG_AIDATA@@J@Z=RKC_RPG_AILIST_GetAIDataFromAIDataNo @24
?GetCount@RKC_RPG_AILIST@@QAEJXZ=RKC_RPG_AILIST_GetCount @29
?GetEventNoFromAIDataNo@RKC_RPG_AILIST@@QAEJJ@Z=RKC_RPG_AILIST_GetEventNoFromAIDataNo @31
?GetName@RKC_RPG_AILIST@@QAEPADXZ=RKC_RPG_AILIST_GetName @33
?GetWalkPointSpeed@RKC_RPG_AILIST@@QAEJXZ=o_RKC_RPG_AICONTROL.?GetWalkPointSpeed@RKC_RPG_AILIST@@QAEJXZ @37
?Release@RKC_RPG_AILIST@@QAEXXZ=RKC_RPG_AILIST_Release @44
?SetName@RKC_RPG_AILIST@@QAEXPAD@Z=RKC_RPG_AILIST_SetName @48
?SetWalkPointSpeed@RKC_RPG_AILIST@@QAEXJ@Z=RKC_RPG_AILIST_SetWalkPointSpeed @50

