LIBRARY RKC_RPG_SCRIPT
EXPORTS
; ============================================================================
; RKC_RPG_SCRIPT - USED BY EXE
; ============================================================================
??0RKC_RPG_SCRIPT@@QAE@XZ=o_RKC_RPG_SCRIPT.??0RKC_RPG_SCRIPT@@QAE@XZ @1
??1RKC_RPG_SCRIPT@@QAE@XZ=o_RKC_RPG_SCRIPT.??1RKC_RPG_SCRIPT@@QAE@XZ @9
?GetMessageBlock@RKC_RPG_SCRIPT@@QAEPAVRKC_RPG_SCRIPT_MESSAGEBLOCK@@XZ=o_RKC_RPG_SCRIPT.?GetMessageBlock@RKC_RPG_SCRIPT@@QAEPAVRKC_RPG_SCRIPT_MESSAGEBLOCK@@XZ @47
?GetNetFlag@RKC_RPG_SCRIPT@@QAEPAURKC_RPG_SCRIPT_FLAG@@XZ=o_RKC_RPG_SCRIPT.?GetNetFlag@RKC_RPG_SCRIPT@@QAEPAURKC_RPG_SCRIPT_FLAG@@XZ @51
?GetNetFlagCount@RKC_RPG_SCRIPT@@QAEJXZ=o_RKC_RPG_SCRIPT.?GetNetFlagCount@RKC_RPG_SCRIPT@@QAEJXZ @52
?GetSentenceBlock@RKC_RPG_SCRIPT@@QAEPAVRKC_RPG_SCRIPT_SENTENCEBLOCK@@XZ=o_RKC_RPG_SCRIPT.?GetSentenceBlock@RKC_RPG_SCRIPT@@QAEPAVRKC_RPG_SCRIPT_SENTENCEBLOCK@@XZ @62
?GetStatusBlock@RKC_RPG_SCRIPT@@QAEPAVRKC_RPG_SCRIPT_STATUSBLOCK@@XZ=o_RKC_RPG_SCRIPT.?GetStatusBlock@RKC_RPG_SCRIPT@@QAEPAVRKC_RPG_SCRIPT_STATUSBLOCK@@XZ @64
?GetTempFlag@RKC_RPG_SCRIPT@@QAEPAURKC_RPG_SCRIPT_FLAG@@XZ=o_RKC_RPG_SCRIPT.?GetTempFlag@RKC_RPG_SCRIPT@@QAEPAURKC_RPG_SCRIPT_FLAG@@XZ @66
?GetTempFlagCount@RKC_RPG_SCRIPT@@QAEJXZ=o_RKC_RPG_SCRIPT.?GetTempFlagCount@RKC_RPG_SCRIPT@@QAEJXZ @67
?ReadBinary@RKC_RPG_SCRIPT@@QAEHPAD@Z=o_RKC_RPG_SCRIPT.?ReadBinary@RKC_RPG_SCRIPT@@QAEHPAD@Z @72

; RKC_RPG_SCRIPT - STUBS
??4RKC_RPG_SCRIPT@@QAEAAV0@ABV0@@Z=RKC_RPG_SCRIPT_operatorAssign @17
?AnalyzeCharacterNo@RKC_RPG_SCRIPT@@QAEJPAD@Z=RKC_RPG_SCRIPT_AnalyzeCharacterNo @25
?AnalyzeCommand@RKC_RPG_SCRIPT@@QAEHPADPAVRKC_RPG_SCRIPT_COMMAND@@@Z=RKC_RPG_SCRIPT_AnalyzeCommand @26
?AnalyzeOPERAND@RKC_RPG_SCRIPT@@QAEHPADPAURKC_RPG_SCRIPT_COMMAND_OPERAND@@@Z=RKC_RPG_SCRIPT_AnalyzeOPERAND @27
?AnalyzeOPERAND_NETFLAG@RKC_RPG_SCRIPT@@QAEJPAD@Z=RKC_RPG_SCRIPT_AnalyzeOPERAND_NETFLAG @28
?AnalyzeOperator@RKC_RPG_SCRIPT@@QAEHPADPAURKC_RPG_SCRIPT_COMMAND_OPERAND@@@Z=RKC_RPG_SCRIPT_AnalyzeOperator @29
?GetNetFlag@RKC_RPG_SCRIPT@@QAEJJ@Z=RKC_RPG_SCRIPT_GetNetFlag_index @50
?GetTempFlag@RKC_RPG_SCRIPT@@QAEJJ@Z=RKC_RPG_SCRIPT_GetTempFlag_index @65
?ReadSentence@RKC_RPG_SCRIPT@@QAEHPAU_iobuf@@PAVRKC_RPG_SCRIPT_SENTENCE@@@Z=RKC_RPG_SCRIPT_ReadSentence @73
?ReadText@RKC_RPG_SCRIPT@@QAEHPAD@Z=RKC_RPG_SCRIPT_ReadText @74
?Release@RKC_RPG_SCRIPT@@QAEXXZ=RKC_RPG_SCRIPT_Release @75
?WriteBinary@RKC_RPG_SCRIPT@@QAEHPAD@Z=RKC_RPG_SCRIPT_WriteBinary @82

; ============================================================================
; RKC_RPG_SCRIPT_COMMAND - USED BY EXE
; ============================================================================
?Get@RKC_RPG_SCRIPT_SENTENCE@@QAEPAVRKC_RPG_SCRIPT_COMMAND@@J@Z=o_RKC_RPG_SCRIPT.?Get@RKC_RPG_SCRIPT_SENTENCE@@QAEPAVRKC_RPG_SCRIPT_COMMAND@@J@Z @35
?GetCount@RKC_RPG_SCRIPT_SENTENCE@@QAEJXZ=o_RKC_RPG_SCRIPT.?GetCount@RKC_RPG_SCRIPT_SENTENCE@@QAEJXZ @41
?GetOpecode@RKC_RPG_SCRIPT_COMMAND@@QAEJXZ=o_RKC_RPG_SCRIPT.?GetOpecode@RKC_RPG_SCRIPT_COMMAND@@QAEJXZ @58
?GetOperand@RKC_RPG_SCRIPT_COMMAND@@QAEPAURKC_RPG_SCRIPT_COMMAND_OPERAND@@J@Z=o_RKC_RPG_SCRIPT.?GetOperand@RKC_RPG_SCRIPT_COMMAND@@QAEPAURKC_RPG_SCRIPT_COMMAND_OPERAND@@J@Z @59
?GetOperandCount@RKC_RPG_SCRIPT_COMMAND@@QAEJXZ=o_RKC_RPG_SCRIPT.?GetOperandCount@RKC_RPG_SCRIPT_COMMAND@@QAEJXZ @60

; STUBS
??0RKC_RPG_SCRIPT_COMMAND@@QAE@XZ=RKC_RPG_SCRIPT_COMMAND_constructor @2
??1RKC_RPG_SCRIPT_COMMAND@@QAE@XZ=RKC_RPG_SCRIPT_COMMAND_destructor @10
??4RKC_RPG_SCRIPT_COMMAND@@QAEAAV0@ABV0@@Z=RKC_RPG_SCRIPT_COMMAND_operatorAssign @18
?Delete@RKC_RPG_SCRIPT_SENTENCE@@QAEHJPAPAVRKC_RPG_SCRIPT_COMMAND@@@Z=RKC_RPG_SCRIPT_SENTENCE_Delete @31
?GetNo@RKC_RPG_SCRIPT_SENTENCE@@QAEJPAVRKC_RPG_SCRIPT_COMMAND@@@Z=RKC_RPG_SCRIPT_SENTENCE_GetNo @55
?Insert@RKC_RPG_SCRIPT_SENTENCE@@QAEPAVRKC_RPG_SCRIPT_COMMAND@@JPAV2@@Z=RKC_RPG_SCRIPT_SENTENCE_Insert @69
?Release@RKC_RPG_SCRIPT_COMMAND@@QAEXXZ=RKC_RPG_SCRIPT_COMMAND_Release @76

; ============================================================================
; RKC_RPG_SCRIPT_MESSAGE - USED BY EXE
; ============================================================================
?GetData@RKC_RPG_SCRIPT_MESSAGE@@QAEPADXZ=o_RKC_RPG_SCRIPT.?GetData@RKC_RPG_SCRIPT_MESSAGE@@QAEPADXZ @44
?GetFromID@RKC_RPG_SCRIPT_MESSAGEBLOCK@@QAEPAVRKC_RPG_SCRIPT_MESSAGE@@J@Z=o_RKC_RPG_SCRIPT.?GetFromID@RKC_RPG_SCRIPT_MESSAGEBLOCK@@QAEPAVRKC_RPG_SCRIPT_MESSAGE@@J@Z @45

; STUBS
??0RKC_RPG_SCRIPT_MESSAGE@@QAE@XZ=RKC_RPG_SCRIPT_MESSAGE_constructor @3
??0RKC_RPG_SCRIPT_MESSAGEBLOCK@@QAE@XZ=RKC_RPG_SCRIPT_MESSAGEBLOCK_constructor @4
??1RKC_RPG_SCRIPT_MESSAGE@@QAE@XZ=RKC_RPG_SCRIPT_MESSAGE_destructor @11
??1RKC_RPG_SCRIPT_MESSAGEBLOCK@@QAE@XZ=RKC_RPG_SCRIPT_MESSAGEBLOCK_destructor @12
??4RKC_RPG_SCRIPT_MESSAGE@@QAEAAV0@ABV0@@Z=RKC_RPG_SCRIPT_MESSAGE_operatorAssign @19
??4RKC_RPG_SCRIPT_MESSAGEBLOCK@@QAEAAV0@ABV0@@Z=RKC_RPG_SCRIPT_MESSAGEBLOCK_operatorAssign @20
?Delete@RKC_RPG_SCRIPT_MESSAGEBLOCK@@QAEHJPAPAVRKC_RPG_SCRIPT_MESSAGE@@@Z=RKC_RPG_SCRIPT_MESSAGEBLOCK_Delete @30
?Get@RKC_RPG_SCRIPT_MESSAGEBLOCK@@QAEPAVRKC_RPG_SCRIPT_MESSAGE@@J@Z=RKC_RPG_SCRIPT_MESSAGEBLOCK_Get @34
?GetCount@RKC_RPG_SCRIPT_MESSAGEBLOCK@@QAEJXZ=RKC_RPG_SCRIPT_MESSAGEBLOCK_GetCount @40
?GetID@RKC_RPG_SCRIPT_MESSAGE@@QAEJXZ=RKC_RPG_SCRIPT_MESSAGE_GetID @46
?GetMessageNoFromName@RKC_RPG_SCRIPT_MESSAGEBLOCK@@QAEJPAD@Z=RKC_RPG_SCRIPT_MESSAGEBLOCK_GetMessageNoFromName @48
?GetName@RKC_RPG_SCRIPT_MESSAGE@@QAEPADXZ=RKC_RPG_SCRIPT_MESSAGE_GetName @49
?GetNo@RKC_RPG_SCRIPT_MESSAGEBLOCK@@QAEJPAVRKC_RPG_SCRIPT_MESSAGE@@@Z=RKC_RPG_SCRIPT_MESSAGEBLOCK_GetNo @54
?Insert@RKC_RPG_SCRIPT_MESSAGEBLOCK@@QAEPAVRKC_RPG_SCRIPT_MESSAGE@@JPAV2@@Z=RKC_RPG_SCRIPT_MESSAGEBLOCK_Insert @68
?Release@RKC_RPG_SCRIPT_MESSAGE@@QAEXXZ=RKC_RPG_SCRIPT_MESSAGE_Release @77
?Release@RKC_RPG_SCRIPT_MESSAGEBLOCK@@QAEXXZ=RKC_RPG_SCRIPT_MESSAGEBLOCK_Release @78

; ============================================================================
; RKC_RPG_SCRIPT_SENTENCE/SENTENCEBLOCK - USED BY EXE
; ============================================================================
?Get@RKC_RPG_SCRIPT_SENTENCEBLOCK@@QAEPAVRKC_RPG_SCRIPT_SENTENCE@@J@Z=o_RKC_RPG_SCRIPT.?Get@RKC_RPG_SCRIPT_SENTENCEBLOCK@@QAEPAVRKC_RPG_SCRIPT_SENTENCE@@J@Z @36

; STUBS
??0RKC_RPG_SCRIPT_SENTENCE@@QAE@XZ=RKC_RPG_SCRIPT_SENTENCE_constructor @5
??0RKC_RPG_SCRIPT_SENTENCEBLOCK@@QAE@XZ=RKC_RPG_SCRIPT_SENTENCEBLOCK_constructor @6
??1RKC_RPG_SCRIPT_SENTENCE@@QAE@XZ=RKC_RPG_SCRIPT_SENTENCE_destructor @13
??1RKC_RPG_SCRIPT_SENTENCEBLOCK@@QAE@XZ=RKC_RPG_SCRIPT_SENTENCEBLOCK_destructor @14
??4RKC_RPG_SCRIPT_SENTENCE@@QAEAAV0@ABV0@@Z=RKC_RPG_SCRIPT_SENTENCE_operatorAssign @21
??4RKC_RPG_SCRIPT_SENTENCEBLOCK@@QAEAAV0@ABV0@@Z=RKC_RPG_SCRIPT_SENTENCEBLOCK_operatorAssign @22
?Delete@RKC_RPG_SCRIPT_SENTENCEBLOCK@@QAEHJPAPAVRKC_RPG_SCRIPT_SENTENCE@@@Z=RKC_RPG_SCRIPT_SENTENCEBLOCK_Delete @32
?GetCount@RKC_RPG_SCRIPT_SENTENCEBLOCK@@QAEJXZ=RKC_RPG_SCRIPT_SENTENCEBLOCK_GetCount @42
?GetNo@RKC_RPG_SCRIPT_SENTENCEBLOCK@@QAEJPAVRKC_RPG_SCRIPT_SENTENCE@@@Z=RKC_RPG_SCRIPT_SENTENCEBLOCK_GetNo @56
?Insert@RKC_RPG_SCRIPT_SENTENCEBLOCK@@QAEPAVRKC_RPG_SCRIPT_SENTENCE@@JPAV2@@Z=RKC_RPG_SCRIPT_SENTENCEBLOCK_Insert @70
?Release@RKC_RPG_SCRIPT_SENTENCE@@QAEXXZ=RKC_RPG_SCRIPT_SENTENCE_Release @79
?Release@RKC_RPG_SCRIPT_SENTENCEBLOCK@@QAEXXZ=RKC_RPG_SCRIPT_SENTENCEBLOCK_Release @80

; ============================================================================
; RKC_RPG_SCRIPT_STATUS/STATUSBLOCK - USED BY EXE
; ============================================================================
?Get@RKC_RPG_SCRIPT_STATUSBLOCK@@QAEPAVRKC_RPG_SCRIPT_STATUS@@J@Z=o_RKC_RPG_SCRIPT.?Get@RKC_RPG_SCRIPT_STATUSBLOCK@@QAEPAVRKC_RPG_SCRIPT_STATUS@@J@Z @37
?Get@RKC_RPG_SCRIPT_STATUSBLOCK@@QAEPAVRKC_RPG_SCRIPT_STATUS@@JJ@Z=o_RKC_RPG_SCRIPT.?Get@RKC_RPG_SCRIPT_STATUSBLOCK@@QAEPAVRKC_RPG_SCRIPT_STATUS@@JJ@Z @38
?GetCharacterNo@RKC_RPG_SCRIPT_STATUS@@QAEJXZ=o_RKC_RPG_SCRIPT.?GetCharacterNo@RKC_RPG_SCRIPT_STATUS@@QAEJXZ @39
?GetCount@RKC_RPG_SCRIPT_STATUSBLOCK@@QAEJXZ=o_RKC_RPG_SCRIPT.?GetCount@RKC_RPG_SCRIPT_STATUSBLOCK@@QAEJXZ @43
?GetNetworkFlag@RKC_RPG_SCRIPT_STATUS@@QAEHXZ=o_RKC_RPG_SCRIPT.?GetNetworkFlag@RKC_RPG_SCRIPT_STATUS@@QAEHXZ @53
?GetSentence@RKC_RPG_SCRIPT_STATUS@@QAEJXZ=o_RKC_RPG_SCRIPT.?GetSentence@RKC_RPG_SCRIPT_STATUS@@QAEJXZ @61
?GetStatus@RKC_RPG_SCRIPT_STATUS@@QAEJXZ=o_RKC_RPG_SCRIPT.?GetStatus@RKC_RPG_SCRIPT_STATUS@@QAEJXZ @63

; STUBS
??0RKC_RPG_SCRIPT_STATUS@@QAE@XZ=RKC_RPG_SCRIPT_STATUS_constructor @7
??0RKC_RPG_SCRIPT_STATUSBLOCK@@QAE@XZ=RKC_RPG_SCRIPT_STATUSBLOCK_constructor @8
??1RKC_RPG_SCRIPT_STATUS@@QAE@XZ=RKC_RPG_SCRIPT_STATUS_destructor @15
??1RKC_RPG_SCRIPT_STATUSBLOCK@@QAE@XZ=RKC_RPG_SCRIPT_STATUSBLOCK_destructor @16
??4RKC_RPG_SCRIPT_STATUS@@QAEAAV0@ABV0@@Z=RKC_RPG_SCRIPT_STATUS_operatorAssign @23
??4RKC_RPG_SCRIPT_STATUSBLOCK@@QAEAAV0@ABV0@@Z=RKC_RPG_SCRIPT_STATUSBLOCK_operatorAssign @24
?Delete@RKC_RPG_SCRIPT_STATUSBLOCK@@QAEHJPAPAVRKC_RPG_SCRIPT_STATUS@@@Z=RKC_RPG_SCRIPT_STATUSBLOCK_Delete @33
?GetNo@RKC_RPG_SCRIPT_STATUSBLOCK@@QAEJPAVRKC_RPG_SCRIPT_STATUS@@@Z=RKC_RPG_SCRIPT_STATUSBLOCK_GetNo @57
?Insert@RKC_RPG_SCRIPT_STATUSBLOCK@@QAEPAVRKC_RPG_SCRIPT_STATUS@@JPAV2@@Z=RKC_RPG_SCRIPT_STATUSBLOCK_Insert @71
?Release@RKC_RPG_SCRIPT_STATUSBLOCK@@QAEXXZ=RKC_RPG_SCRIPT_STATUSBLOCK_Release @81

