LIBRARY RKC_UPDIB
EXPORTS
; ============================================================================
; RKC_UPDIB - USED FUNCTIONS
; ============================================================================
??0RKC_UPDIB@@QAE@XZ=o_RKC_UPDIB.??0RKC_UPDIB@@QAE@XZ @1
??0RKC_UPDIB_PATTERN@@QAE@XZ=RKC_UPDIB_PATTERN_constructor @2
??0RKC_UPDIB_VS@@QAE@XZ=RKC_UPDIB_VS_constructor @4
??0RKC_UPDIB_VSBLOCK@@QAE@XZ=RKC_UPDIB_VSBLOCK_constructor @5
??0RKC_UPDIB_VSPACKET@@QAE@XZ=RKC_UPDIB_VSPACKET_constructor @6
??1RKC_UPDIB@@QAE@XZ=o_RKC_UPDIB.??1RKC_UPDIB@@QAE@XZ @7
??1RKC_UPDIB_VSPACKET@@QAE@XZ=RKC_UPDIB_VSPACKET_destructor @12
?CreateTemporaryDIB@RKC_UPDIB@@QAEXXZ=o_RKC_UPDIB.?CreateTemporaryDIB@RKC_UPDIB@@QAEXXZ @19
?DeleteUpd@RKC_UPDIB@@QAEHJH@Z=o_RKC_UPDIB.?DeleteUpd@RKC_UPDIB@@QAEHJH@Z @22
?FlushVSBlock@RKC_UPDIB@@QAEXJ@Z=o_RKC_UPDIB.?FlushVSBlock@RKC_UPDIB@@QAEXJ@Z @26
?GetBuildRect@RKC_UPDIB_PATTERN@@QAEPAUtagRECT@@XZ=RKC_UPDIB_PATTERN_GetBuildRect @29
?GetDIBHISpeedMode@RKC_UPDIB@@QAEPAVRKC_DIBHISPEEDMODE@@XZ=RKC_UPDIB_GetDIBHISpeedMode @30
?GetDefaultPaletteNo@RKC_UPDIB_PATTERN@@QAEJXZ=RKC_UPDIB_PATTERN_GetDefaultPaletteNo @31
?GetFilename@RKC_UPDIB_UPD@@QAEPADXZ=RKC_UPDIB_UPD_GetFilename @32
?GetFontParam@RKC_UPDIB@@QAEHJPAJ0@Z=o_RKC_UPDIB.?GetFontParam@RKC_UPDIB@@QAEHJPAJ0@Z @33
?GetIcon@RKC_UPDIB_PATTERN@@QAEPAVRKC_DIB@@XZ=RKC_UPDIB_PATTERN_GetIcon @34
?GetJudgement@RKC_UPDIB_PATTERN@@QAEPAURKC_UPDIB_JUDGE@@XZ=RKC_UPDIB_PATTERN_GetJudgement @35
?GetName@RKC_UPDIB_PATTERN@@QAEPADXZ=RKC_UPDIB_PATTERN_GetName @36
?GetPaletteCount@RKC_UPDIB_UPD@@QAEJXZ=RKC_UPDIB_UPD_GetPaletteCount @38
?GetParts@RKC_UPDIB_UPD@@QAEPAURKC_UPDIB_UPD_PARTS@@J@Z=o_RKC_UPDIB.?GetParts@RKC_UPDIB_UPD@@QAEPAURKC_UPDIB_UPD_PARTS@@J@Z @40
?GetPartsCount@RKC_UPDIB_UPD@@QAEJXZ=RKC_UPDIB_UPD_GetPartsCount @41
?GetPartsList@RKC_UPDIB_PATTERN@@QAEPAURKC_UPDIB_PARTSLIST@@J@Z=RKC_UPDIB_PATTERN_GetPartsList @42
?GetPartsListCount@RKC_UPDIB_PATTERN@@QAEJXZ=RKC_UPDIB_PATTERN_GetPartsListCount @43
?GetPattern@RKC_UPDIB_UPD@@QAEPAVRKC_UPDIB_PATTERN@@J@Z=o_RKC_UPDIB.?GetPattern@RKC_UPDIB_UPD@@QAEPAVRKC_UPDIB_PATTERN@@J@Z @44
?GetPatternCount@RKC_UPDIB_UPD@@QAEJXZ=RKC_UPDIB_UPD_GetPatternCount @45
?GetStatus@RKC_UPDIB_UPD@@QAEJXZ=RKC_UPDIB_UPD_GetStatus @46
?GetType@RKC_UPDIB_UPD@@QAEJXZ=RKC_UPDIB_UPD_GetType @47
?GetUpd@RKC_UPDIB@@QAEPAVRKC_UPDIB_UPD@@J@Z=RKC_UPDIB_GetUpd @48
?GetUpdCount@RKC_UPDIB@@QAEJXZ=RKC_UPDIB_GetUpdCount @49
?GetVSBlock@RKC_UPDIB@@QAEPAVRKC_UPDIB_VSBLOCK@@J@Z=o_RKC_UPDIB.?GetVSBlock@RKC_UPDIB@@QAEPAVRKC_UPDIB_VSBLOCK@@J@Z @50
?GetVScreen@RKC_UPDIB_VSBLOCK@@QAEPAVRKC_UPDIB_VS@@J@Z=o_RKC_UPDIB.?GetVScreen@RKC_UPDIB_VSBLOCK@@QAEPAVRKC_UPDIB_VS@@J@Z @55
?GetVersionNo@RKC_UPDIB_UPD@@QAEJXZ=RKC_UPDIB_UPD_GetVersionNo @56
?Initialize@RKC_UPDIB@@QAEHJJJH@Z=o_RKC_UPDIB.?Initialize@RKC_UPDIB@@QAEHJJJH@Z @57
?ReadUpd@RKC_UPDIB@@QAEHJPADJJJH@Z=o_RKC_UPDIB.?ReadUpd@RKC_UPDIB@@QAEHJPADJJJH@Z @61
?Release@RKC_UPDIB_UPD@@QAEXXZ=o_RKC_UPDIB.?Release@RKC_UPDIB_UPD@@QAEXXZ @64
?Render@RKC_UPDIB@@QAEHPAVRKC_DIB@@JJJJPAUtagRECT@@@Z=o_RKC_UPDIB.?Render@RKC_UPDIB@@QAEHPAVRKC_DIB@@JJJJPAUtagRECT@@@Z @67
?Render@RKC_UPDIB_VSBLOCK@@QAEHPAVRKC_DIB@@JJJPAUtagRECT@@@Z=o_RKC_UPDIB.?Render@RKC_UPDIB_VSBLOCK@@QAEHPAVRKC_DIB@@JJJPAUtagRECT@@@Z @69
?SetPacket@RKC_UPDIB@@QAEHJJJJJJJJJJJJJFFFPAUtagRECT@@PAVRKC_DIB@@@Z=o_RKC_UPDIB.?SetPacket@RKC_UPDIB@@QAEHJJJJJJJJJJJJJFFFPAUtagRECT@@PAVRKC_DIB@@@Z @75
?SetPacket@RKC_UPDIB_VS@@QAEPAVRKC_UPDIB_VSPACKET@@JJJJJJJJJJJJFFFPAUtagRECT@@PAVRKC_DIB@@@Z=o_RKC_UPDIB.?SetPacket@RKC_UPDIB_VS@@QAEPAVRKC_UPDIB_VSPACKET@@JJJJJJJJJJJJFFFPAUtagRECT@@PAVRKC_DIB@@@Z @76
?SetStatus@RKC_UPDIB_UPD@@QAEXJ@Z=RKC_UPDIB_UPD_SetStatus @80
?SetStringsPacket@RKC_UPDIB@@QAEHJJJJJPADEEEJJJJJ@Z=o_RKC_UPDIB.?SetStringsPacket@RKC_UPDIB@@QAEHJJJJJPADEEEJJJJJ@Z @81

; ============================================================================
; STUBS - NOT USED BY EXE OR OTHER DLLS
; ============================================================================
??0RKC_UPDIB_UPD@@QAE@XZ=RKC_UPDIB_UPD_constructor @3
??1RKC_UPDIB_PATTERN@@QAE@XZ=RKC_UPDIB_PATTERN_destructor @8
??1RKC_UPDIB_UPD@@QAE@XZ=RKC_UPDIB_UPD_destructor @9
??1RKC_UPDIB_VS@@QAE@XZ=RKC_UPDIB_VS_destructor @10
??1RKC_UPDIB_VSBLOCK@@QAE@XZ=RKC_UPDIB_VSBLOCK_destructor @11
??4RKC_UPDIB@@QAEAAV0@ABV0@@Z=RKC_UPDIB_operatorAssign @13
??4RKC_UPDIB_PATTERN@@QAEAAV0@ABV0@@Z=RKC_UPDIB_PATTERN_operatorAssign @14
??4RKC_UPDIB_UPD@@QAEAAV0@ABV0@@Z=RKC_UPDIB_UPD_operatorAssign @15
??4RKC_UPDIB_VS@@QAEAAV0@ABV0@@Z=RKC_UPDIB_VS_operatorAssign @16
??4RKC_UPDIB_VSBLOCK@@QAEAAV0@ABV0@@Z=RKC_UPDIB_VSBLOCK_operatorAssign @17
??4RKC_UPDIB_VSPACKET@@QAEAAV0@ABV0@@Z=RKC_UPDIB_VSPACKET_operatorAssign @18
?CreateUpdBlock@RKC_UPDIB@@QAEHJ@Z=RKC_UPDIB_CreateUpdBlock @20
?CreateVS@RKC_UPDIB_VSBLOCK@@QAEHJ@Z=RKC_UPDIB_VSBLOCK_CreateVS @21
?DeleteVSBlock@RKC_UPDIB@@QAEHJ@Z=RKC_UPDIB_DeleteVSBlock @23
?DeleteVSPacket@RKC_UPDIB_VS@@QAEHJ@Z=RKC_UPDIB_VS_DeleteVSPacket @24
?ExchangeUpd@RKC_UPDIB@@QAEHJJ@Z=RKC_UPDIB_ExchangeUpd @25
?FlushVSPacket@RKC_UPDIB_VS@@QAEXXZ=RKC_UPDIB_VS_FlushVSPacket @27
?FlushVScreen@RKC_UPDIB_VSBLOCK@@QAEXXZ=RKC_UPDIB_VSBLOCK_FlushVScreen @28
?GetPalette@RKC_UPDIB_UPD@@QAEPAUtagRGBQUAD@@J@Z=RKC_UPDIB_UPD_GetPalette @37
?GetPaletteDIB@RKC_UPDIB_UPD@@QAEPAVRKC_DIB@@J@Z=RKC_UPDIB_UPD_GetPaletteDIB @39
?GetVSBlockCount@RKC_UPDIB@@QAEJXZ=RKC_UPDIB_GetVSBlockCount @51
?GetVSCount@RKC_UPDIB_VSBLOCK@@QAEJXZ=RKC_UPDIB_VSBLOCK_GetVSCount @52
?GetVSPacket@RKC_UPDIB_VS@@QAEPAVRKC_UPDIB_VSPACKET@@J@Z=RKC_UPDIB_VS_GetVSPacket @53
?GetVSPacketCount@RKC_UPDIB_VS@@QAEJXZ=RKC_UPDIB_VS_GetVSPacketCount @54
?InsertVSBlock@RKC_UPDIB@@QAEPAVRKC_UPDIB_VSBLOCK@@J@Z=RKC_UPDIB_InsertVSBlock @58
?InsertVSPacket@RKC_UPDIB_VS@@QAEPAVRKC_UPDIB_VSPACKET@@J@Z=RKC_UPDIB_VS_InsertVSPacket @59
?Read@RKC_UPDIB_UPD@@QAEHPADJ@Z=RKC_UPDIB_UPD_Read @60
?Release@RKC_UPDIB@@QAEXXZ=RKC_UPDIB_Release @62
?Release@RKC_UPDIB_PATTERN@@QAEXXZ=RKC_UPDIB_PATTERN_Release @63
?Release@RKC_UPDIB_VS@@QAEXXZ=RKC_UPDIB_VS_Release @65
?Release@RKC_UPDIB_VSBLOCK@@QAEXXZ=RKC_UPDIB_VSBLOCK_Release @66
?Render@RKC_UPDIB_VS@@QAEHPAVRKC_DIB@@JJPAUtagRECT@@@Z=RKC_UPDIB_VS_Render @68
?Render@RKC_UPDIB_VSPACKET@@QAEHPAVRKC_DIB@@PAUtagRECT@@@Z=RKC_UPDIB_VSPACKET_Render @70
?RenderBox@RKC_UPDIB_VSPACKET@@QAEHPAVRKC_DIB@@PAUtagRECT@@@Z=RKC_UPDIB_VSPACKET_RenderBox @71
?RenderFill@RKC_UPDIB_VSPACKET@@QAEHPAVRKC_DIB@@PAUtagRECT@@@Z=RKC_UPDIB_VSPACKET_RenderFill @72
?RenderLine@RKC_UPDIB_VSPACKET@@QAEHPAVRKC_DIB@@PAUtagRECT@@@Z=RKC_UPDIB_VSPACKET_RenderLine @73
?RenderPoint@RKC_UPDIB_VSPACKET@@QAEHPAVRKC_DIB@@PAUtagRECT@@@Z=RKC_UPDIB_VSPACKET_RenderPoint @74
?SetPacket@RKC_UPDIB_VS@@QAEPAVRKC_UPDIB_VSPACKET@@JPAV2@@Z=RKC_UPDIB_VS_SetPacket @77
?SetPacket@RKC_UPDIB_VSPACKET@@QAEPAV1@PAV1@@Z=RKC_UPDIB_VSPACKET_SetPacket_copy @78
?SetPacket@RKC_UPDIB_VSPACKET@@QAEPAV1@PAVRKC_UPDIB@@JJJJJJJJJJJFFFPAUtagRECT@@PAVRKC_DIB@@@Z=RKC_UPDIB_VSPACKET_SetPacket_full @79

