; RKC_DBFCONTROL exports 
; Paint is hooked locally for OpenGL rendering, rest forwards to original

EXPORTS
; RKC_DBF class (all forward to original)
??0RKC_DBF@@QAE@XZ=o_RKC_DBFCONTROL.??0RKC_DBF@@QAE@XZ
??1RKC_DBF@@QAE@XZ=o_RKC_DBFCONTROL.??1RKC_DBF@@QAE@XZ
??4RKC_DBF@@QAEAAV0@ABV0@@Z=o_RKC_DBFCONTROL.??4RKC_DBF@@QAEAAV0@ABV0@@Z
?Draw@RKC_DBF@@QAEXXZ=o_RKC_DBFCONTROL.?Draw@RKC_DBF@@QAEXXZ
?Flush@RKC_DBF@@QAEXXZ=o_RKC_DBFCONTROL.?Flush@RKC_DBF@@QAEXXZ
?GetClipRect@RKC_DBF@@QAEXPAUtagRECT@@@Z=o_RKC_DBFCONTROL.?GetClipRect@RKC_DBF@@QAEXPAUtagRECT@@@Z
?GetDIBitmap@RKC_DBF@@QAEPAVRKC_DIB@@XZ=o_RKC_DBFCONTROL.?GetDIBitmap@RKC_DBF@@QAEPAVRKC_DIB@@XZ
?GetVSBlockNo@RKC_DBF@@QAEJXZ=RKC_DBF_GetVSBlockNo
?Release@RKC_DBF@@QAEXXZ=o_RKC_DBFCONTROL.?Release@RKC_DBF@@QAEXXZ
?SetClipRect@RKC_DBF@@QAEXPAUtagRECT@@@Z=RKC_DBF_SetClipRect

; RKC_DBFCONTROL class (only Paint is local, rest forward)
??0RKC_DBFCONTROL@@QAE@XZ=o_RKC_DBFCONTROL.??0RKC_DBFCONTROL@@QAE@XZ
??1RKC_DBFCONTROL@@QAE@XZ=o_RKC_DBFCONTROL.??1RKC_DBFCONTROL@@QAE@XZ
??4RKC_DBFCONTROL@@QAEAAV0@ABV0@@Z=o_RKC_DBFCONTROL.??4RKC_DBFCONTROL@@QAEAAV0@ABV0@@Z
?Clear@RKC_DBFCONTROL@@QAEHPAUtagRGBQUAD@@@Z=RKC_DBFCONTROL_Clear
?DisableDraw@RKC_DBFCONTROL@@QAEXXZ=o_RKC_DBFCONTROL.?DisableDraw@RKC_DBFCONTROL@@QAEXXZ
?Draw@RKC_DBFCONTROL@@QAEPAVRKC_DIB@@XZ=o_RKC_DBFCONTROL.?Draw@RKC_DBFCONTROL@@QAEPAVRKC_DIB@@XZ
?DrawEnd@RKC_DBFCONTROL@@QAEXXZ=RKC_DBFCONTROL_DrawEnd
?DrawFunction@RKC_DBFCONTROL@@QAEXXZ=o_RKC_DBFCONTROL.?DrawFunction@RKC_DBFCONTROL@@QAEXXZ
?EnableDraw@RKC_DBFCONTROL@@QAEXXZ=o_RKC_DBFCONTROL.?EnableDraw@RKC_DBFCONTROL@@QAEXXZ
?FlushDrawCount@RKC_DBFCONTROL@@QAEXXZ=o_RKC_DBFCONTROL.?FlushDrawCount@RKC_DBFCONTROL@@QAEXXZ
?GetClipRect@RKC_DBFCONTROL@@QAEXPAUtagRECT@@J@Z=o_RKC_DBFCONTROL.?GetClipRect@RKC_DBFCONTROL@@QAEXPAUtagRECT@@J@Z
?GetCurrentDBF@RKC_DBFCONTROL@@QAEPAVRKC_DBF@@XZ=RKC_DBFCONTROL_GetCurrentDBF
?GetDrawCount@RKC_DBFCONTROL@@QAEJXZ=RKC_DBFCONTROL_GetDrawCount
?GetDrawThreadHandle@RKC_DBFCONTROL@@QAEPAXXZ=o_RKC_DBFCONTROL.?GetDrawThreadHandle@RKC_DBFCONTROL@@QAEPAXXZ
?GetDrawingFlag@RKC_DBFCONTROL@@QAEHXZ=RKC_DBFCONTROL_GetDrawingFlag
?GetExStyle@RKC_DBFCONTROL@@QAEJJ@Z=RKC_DBFCONTROL_GetExStyle
?GetFramePerSecond@RKC_DBFCONTROL@@QAEJXZ=RKC_DBFCONTROL_GetFramePerSecond
?GetPosition@RKC_DBFCONTROL@@QAE?AUtagPOINT@@J@Z=RKC_DBFCONTROL_GetPosition
?GetStyle@RKC_DBFCONTROL@@QAEJJ@Z=RKC_DBFCONTROL_GetStyle
?GetSurface@RKC_DBFCONTROL@@QAEPAUIDirectDrawSurface@@H@Z=RKC_DBFCONTROL_GetSurface
?GetThreadDrawFlag@RKC_DBFCONTROL@@QAEHXZ=o_RKC_DBFCONTROL.?GetThreadDrawFlag@RKC_DBFCONTROL@@QAEHXZ
?GetWindowHandle@RKC_DBFCONTROL@@QAEPAUHWND__@@XZ=o_RKC_DBFCONTROL.?GetWindowHandle@RKC_DBFCONTROL@@QAEPAUHWND__@@XZ
?Initialize@RKC_DBFCONTROL@@QAEHPAUHWND__@@PAVRKC_UPDIB@@JJJP6AHXZJJPAUtagRECT@@HPAUtagRGBQUAD@@J@Z=o_RKC_DBFCONTROL.?Initialize@RKC_DBFCONTROL@@QAEHPAUHWND__@@PAVRKC_UPDIB@@JJJP6AHXZJJPAUtagRECT@@HPAUtagRGBQUAD@@J@Z
; Paint is LOCAL - our OpenGL hook!
?Paint@RKC_DBFCONTROL@@QAEXPAUHDC__@@H@Z=RKC_DBFCONTROL_Paint
?Redraw@RKC_DBFCONTROL@@QAEHXZ=o_RKC_DBFCONTROL.?Redraw@RKC_DBFCONTROL@@QAEHXZ
?Release@RKC_DBFCONTROL@@QAEXXZ=o_RKC_DBFCONTROL.?Release@RKC_DBFCONTROL@@QAEXXZ
?SetClipRect@RKC_DBFCONTROL@@QAEXPAUtagRECT@@@Z=RKC_DBFCONTROL_SetClipRect
?SetPaintFunction@RKC_DBFCONTROL@@QAEXP6AXPAUHDC__@@@Z@Z=RKC_DBFCONTROL_SetPaintFunction
?SetScreenClear@RKC_DBFCONTROL@@QAEXHPAUtagRGBQUAD@@@Z=RKC_DBFCONTROL_SetScreenClear
?StartAll@RKC_DBFCONTROL@@QAEXXZ=o_RKC_DBFCONTROL.?StartAll@RKC_DBFCONTROL@@QAEXXZ
?StopAll@RKC_DBFCONTROL@@QAEXXZ=o_RKC_DBFCONTROL.?StopAll@RKC_DBFCONTROL@@QAEXXZ

