LIBRARY RKC_NETWORK
EXPORTS
; ============================================================================
; RKC_NETWORK - Main network manager
; ============================================================================
??0RKC_NETWORK@@QAE@XZ=o_RKC_NETWORK.??0RKC_NETWORK@@QAE@XZ @1
??1RKC_NETWORK@@QAE@XZ=o_RKC_NETWORK.??1RKC_NETWORK@@QAE@XZ @12
??4RKC_NETWORK@@QAEAAV0@ABV0@@Z=RKC_NETWORK_operatorAssign @23
?GetClient@RKC_NETWORK@@QAEPAVRKC_NETWORK_CLIENT@@XZ=RKC_NETWORK_GetClient @54
?GetServer@RKC_NETWORK@@QAEPAVRKC_NETWORK_SERVER@@XZ=RKC_NETWORK_GetServer @85
?ResetMutex@RKC_NETWORK@@QAEHXZ=o_RKC_NETWORK.?ResetMutex@RKC_NETWORK@@QAEHXZ @109
?SetMutex@RKC_NETWORK@@QAEHXZ=o_RKC_NETWORK.?SetMutex@RKC_NETWORK@@QAEHXZ @119

; ============================================================================
; RKC_NETWORK_PACKET - Network packet (NOT USED BY EXE except GetNext/GetLine/GetData/GetInfoID/GetSize)
; ============================================================================
??0RKC_NETWORK_PACKET@@QAE@XZ=RKC_NETWORK_PACKET_constructor @3
??1RKC_NETWORK_PACKET@@QAE@XZ=RKC_NETWORK_PACKET_destructor @14
??4RKC_NETWORK_PACKET@@QAEAAV0@ABV0@@Z=RKC_NETWORK_PACKET_operatorAssign @25
?AllocateData@RKC_NETWORK_PACKET@@QAEXJ@Z=RKC_NETWORK_PACKET_AllocateData @35
?GetData@RKC_NETWORK_PACKET@@QAEPAXXZ=RKC_NETWORK_PACKET_GetData @62
?GetDisc@RKC_NETWORK_PACKET@@QAEJXZ=RKC_NETWORK_PACKET_GetDisc @63
?GetID@RKC_NETWORK_PACKET@@QAEJXZ=RKC_NETWORK_PACKET_GetID @67
?GetInfoID@RKC_NETWORK_PACKET@@QAEJXZ=RKC_NETWORK_PACKET_GetInfoID @73
?GetLine@RKC_NETWORK_PACKET@@QAEJXZ=RKC_NETWORK_PACKET_GetLine @74
?GetNext@RKC_NETWORK_PACKET@@QAEPAV1@XZ=RKC_NETWORK_PACKET_GetNext @76
?GetSize@RKC_NETWORK_PACKET@@QAEJXZ=RKC_NETWORK_PACKET_GetSize @86
?Release@RKC_NETWORK_PACKET@@QAEXXZ=RKC_NETWORK_PACKET_Release @103
?SetDisc@RKC_NETWORK_PACKET@@QAEXJ@Z=RKC_NETWORK_PACKET_SetDisc @112
?SetID@RKC_NETWORK_PACKET@@QAEXJ@Z=RKC_NETWORK_PACKET_SetID @113
?SetInfoID@RKC_NETWORK_PACKET@@QAEXJ@Z=RKC_NETWORK_PACKET_SetInfoID @117
?SetLine@RKC_NETWORK_PACKET@@QAEXJ@Z=RKC_NETWORK_PACKET_SetLine @118
?SetParam@RKC_NETWORK_PACKET@@QAEXJJJJPAXJ@Z=RKC_NETWORK_PACKET_SetParam @120

; ============================================================================
; RKC_NETWORK_PACKETBLOCK - Container for packets (Get and Release used by exe)
; ============================================================================
??0RKC_NETWORK_PACKETBLOCK@@QAE@XZ=RKC_NETWORK_PACKETBLOCK_constructor @4
??1RKC_NETWORK_PACKETBLOCK@@QAE@XZ=RKC_NETWORK_PACKETBLOCK_destructor @15
??4RKC_NETWORK_PACKETBLOCK@@QAEAAV0@ABV0@@Z=RKC_NETWORK_PACKETBLOCK_operatorAssign @26
?Delete@RKC_NETWORK_PACKETBLOCK@@QAEHJ@Z=RKC_NETWORK_PACKETBLOCK_Delete_index @43
?Delete@RKC_NETWORK_PACKETBLOCK@@QAEHPAVRKC_NETWORK_PACKET@@@Z=RKC_NETWORK_PACKETBLOCK_Delete_packet @44
?Get@RKC_NETWORK_PACKETBLOCK@@QAEPAVRKC_NETWORK_PACKET@@J@Z=o_RKC_NETWORK.?Get@RKC_NETWORK_PACKETBLOCK@@QAEPAVRKC_NETWORK_PACKET@@J@Z @48
?GetCount@RKC_NETWORK_PACKETBLOCK@@QAEJJ@Z=RKC_NETWORK_PACKETBLOCK_GetCount_line @59
?GetCount@RKC_NETWORK_PACKETBLOCK@@QAEJXZ=RKC_NETWORK_PACKETBLOCK_GetCount @60
?GetNo@RKC_NETWORK_PACKETBLOCK@@QAEJPAVRKC_NETWORK_PACKET@@@Z=RKC_NETWORK_PACKETBLOCK_GetNo @77
?Insert@RKC_NETWORK_PACKETBLOCK@@QAEPAVRKC_NETWORK_PACKET@@J@Z=RKC_NETWORK_PACKETBLOCK_Insert @98
?Release@RKC_NETWORK_PACKETBLOCK@@QAEXXZ=o_RKC_NETWORK.?Release@RKC_NETWORK_PACKETBLOCK@@QAEXXZ @104

; ============================================================================
; RKC_NETWORK_USERINFO - User information (NOT USED BY EXE - all stubbed)
; ============================================================================
??0RKC_NETWORK_USERINFO@@QAE@XZ=RKC_NETWORK_USERINFO_constructor @10
??1RKC_NETWORK_USERINFO@@QAE@XZ=RKC_NETWORK_USERINFO_destructor @21
??4RKC_NETWORK_USERINFO@@QAEAAV0@ABV0@@Z=RKC_NETWORK_USERINFO_operatorAssign @32
?GetID@RKC_NETWORK_USERINFO@@QAEJXZ=RKC_NETWORK_USERINFO_GetID @69
?GetPassword@RKC_NETWORK_USERINFO@@QAEPADXZ=RKC_NETWORK_USERINFO_GetPassword @78
?GetUserData@RKC_NETWORK_USERINFO@@QAEPAXXZ=RKC_NETWORK_USERINFO_GetUserData @91
?GetUserNameA@RKC_NETWORK_USERINFO@@QAEPADXZ=RKC_NETWORK_USERINFO_GetUserNameA @95
?SetID@RKC_NETWORK_USERINFO@@QAEXJ@Z=RKC_NETWORK_USERINFO_SetID @115
?SetPassword@RKC_NETWORK_USERINFO@@QAEXPAD@Z=RKC_NETWORK_USERINFO_SetPassword @121
?SetUserData@RKC_NETWORK_USERINFO@@QAEXPAX@Z=RKC_NETWORK_USERINFO_SetUserData @126
?SetUserName@RKC_NETWORK_USERINFO@@QAEXPAD@Z=RKC_NETWORK_USERINFO_SetUserName @128

; ============================================================================
; RKC_NETWORK_USERINFOBLOCK - Container for user info (NOT USED BY EXE - all stubbed)
; ============================================================================
??0RKC_NETWORK_USERINFOBLOCK@@QAE@XZ=RKC_NETWORK_PACKETBLOCK_constructor @11
??1RKC_NETWORK_USERINFOBLOCK@@QAE@XZ=RKC_NETWORK_USERINFOBLOCK_destructor @22
??4RKC_NETWORK_USERINFOBLOCK@@QAEAAV0@ABV0@@Z=RKC_NETWORK_USERINFOBLOCK_operatorAssign @33
?Append@RKC_NETWORK_USERINFOBLOCK@@QAEPAVRKC_NETWORK_USERINFO@@XZ=RKC_NETWORK_USERINFOBLOCK_Append @36
?Delete@RKC_NETWORK_USERINFOBLOCK@@QAEHJ@Z=RKC_NETWORK_USERINFOBLOCK_Delete @45
?Get@RKC_NETWORK_USERINFOBLOCK@@QAEPAVRKC_NETWORK_USERINFO@@J@Z=RKC_NETWORK_USERINFOBLOCK_Get @50
?GetCount@RKC_NETWORK_USERINFOBLOCK@@QAEJXZ=RKC_NETWORK_USERINFOBLOCK_GetCount @61
?GetFromID@RKC_NETWORK_USERINFOBLOCK@@QAEPAVRKC_NETWORK_USERINFO@@J@Z=RKC_NETWORK_USERINFOBLOCK_GetFromID @65
?GetFromName@RKC_NETWORK_USERINFOBLOCK@@QAEPAVRKC_NETWORK_USERINFO@@PAD@Z=RKC_NETWORK_USERINFOBLOCK_GetFromName @66
?Release@RKC_NETWORK_USERINFOBLOCK@@QAEXXZ=RKC_NETWORK_USERINFOBLOCK_Release @108

; ============================================================================
; RKC_NETWORK_TRANSFER - Data transfer (NOT USED BY EXE - all stubbed)
; ============================================================================
??0RKC_NETWORK_TRANSFER@@QAE@XZ=RKC_NETWORK_TRANSFER_constructor @9
??1RKC_NETWORK_TRANSFER@@QAE@XZ=RKC_NETWORK_TRANSFER_destructor @20
??4RKC_NETWORK_TRANSFER@@QAEAAV0@ABV0@@Z=RKC_NETWORK_TRANSFER_operatorAssign @31
?Recv@RKC_NETWORK_TRANSFER@@QAEHIPAEJ@Z=RKC_NETWORK_TRANSFER_Recv @100
?RecvSub@RKC_NETWORK_TRANSFER@@AAEHIPAEJ@Z=RKC_NETWORK_TRANSFER_RecvSub @101
?Send@RKC_NETWORK_TRANSFER@@QAEHIPAEJ@Z=RKC_NETWORK_TRANSFER_Send @110
?SendSub@RKC_NETWORK_TRANSFER@@AAEHIPAEJ@Z=RKC_NETWORK_TRANSFER_SendSub @111

; ============================================================================
; RKC_NETWORK_SERVER_SOCKET (NOT USED BY EXE - all stubbed)
; ============================================================================
??0RKC_NETWORK_SERVER_SOCKET@@QAE@XZ=RKC_NETWORK_SERVER_SOCKET_constructor @7
??1RKC_NETWORK_SERVER_SOCKET@@QAE@XZ=RKC_NETWORK_SERVER_SOCKET_destructor @18
??4RKC_NETWORK_SERVER_SOCKET@@QAEAAV0@ABV0@@Z=RKC_NETWORK_SERVER_SOCKET_operatorAssign @29
?Get@RKC_NETWORK_SERVER_SOCKET@@QAEIXZ=RKC_NETWORK_SERVER_SOCKET_Get @49
?SocketComparisionThread@RKC_NETWORK_SERVER_SOCKET@@QAEXXZ=RKC_NETWORK_SERVER_SOCKET_SocketComparisionThread @129

; ============================================================================
; RKC_NETWORK_SERVER_SOCKETCOMP (NOT USED BY EXE - all stubbed)
; ============================================================================
??0RKC_NETWORK_SERVER_SOCKETCOMP@@QAE@XZ=RKC_NETWORK_SERVER_SOCKETCOMP_constructor @8
??1RKC_NETWORK_SERVER_SOCKETCOMP@@QAE@XZ=RKC_NETWORK_SERVER_SOCKETCOMP_destructor @19
??4RKC_NETWORK_SERVER_SOCKETCOMP@@QAEAAV0@ABV0@@Z=RKC_NETWORK_SERVER_SOCKETCOMP_operatorAssign @30
?InsertComparisionSocket@RKC_NETWORK_SERVER_SOCKETCOMP@@QAEHI@Z=RKC_NETWORK_SERVER_SOCKETCOMP_InsertComparisionSocket @99
?Release@RKC_NETWORK_SERVER_SOCKETCOMP@@QAEXXZ=RKC_NETWORK_SERVER_SOCKETCOMP_Release @107

; ============================================================================
; RKC_NETWORK_SERVER_CONNECTION - Server connection (some used by exe)
; ============================================================================
??0RKC_NETWORK_SERVER_CONNECTION@@QAE@XZ=RKC_NETWORK_SERVER_CONNECTION_constructor @6
??1RKC_NETWORK_SERVER_CONNECTION@@QAE@XZ=RKC_NETWORK_SERVER_CONNECTION_destructor @17
??4RKC_NETWORK_SERVER_CONNECTION@@QAEAAV0@ABV0@@Z=RKC_NETWORK_SERVER_CONNECTION_operatorAssign @28
?ConnectionThread@RKC_NETWORK_SERVER_CONNECTION@@QAEXJ@Z=RKC_NETWORK_SERVER_CONNECTION_ConnectionThread @40
?CreateConnectionThread@RKC_NETWORK_SERVER_CONNECTION@@QAEHJ@Z=RKC_NETWORK_SERVER_CONNECTION_CreateConnectionThread @42
?DeleteRecvPacket@RKC_NETWORK_SERVER_CONNECTION@@QAEHPAVRKC_NETWORK_PACKET@@@Z=o_RKC_NETWORK.?DeleteRecvPacket@RKC_NETWORK_SERVER_CONNECTION@@QAEHPAVRKC_NETWORK_PACKET@@@Z @47
?GetID@RKC_NETWORK_SERVER_CONNECTION@@QAEJXZ=RKC_NETWORK_SERVER_CONNECTION_GetID @68
?GetIP@RKC_NETWORK_SERVER_CONNECTION@@QAEPAURKC_NETWORK_IP@@XZ=RKC_NETWORK_SERVER_CONNECTION_GetIP @72
?GetRecvPacket@RKC_NETWORK_SERVER_CONNECTION@@QAEPAVRKC_NETWORK_PACKET@@JJ@Z=o_RKC_NETWORK.?GetRecvPacket@RKC_NETWORK_SERVER_CONNECTION@@QAEPAVRKC_NETWORK_PACKET@@JJ@Z @80
?GetRecvPacketBlock@RKC_NETWORK_SERVER_CONNECTION@@QAEPAVRKC_NETWORK_PACKETBLOCK@@XZ=o_RKC_NETWORK.?GetRecvPacketBlock@RKC_NETWORK_SERVER_CONNECTION@@QAEPAVRKC_NETWORK_PACKETBLOCK@@XZ @82
?GetSendPacketBlock@RKC_NETWORK_SERVER_CONNECTION@@QAEPAVRKC_NETWORK_PACKETBLOCK@@XZ=o_RKC_NETWORK.?GetSendPacketBlock@RKC_NETWORK_SERVER_CONNECTION@@QAEPAVRKC_NETWORK_PACKETBLOCK@@XZ @84
?GetSocket@RKC_NETWORK_SERVER_CONNECTION@@QAEIJ@Z=RKC_NETWORK_SERVER_CONNECTION_GetSocket @87
?GetStatus@RKC_NETWORK_SERVER_CONNECTION@@QAEJXZ=RKC_NETWORK_SERVER_CONNECTION_GetStatus @89
?GetUserID@RKC_NETWORK_SERVER_CONNECTION@@QAEJXZ=RKC_NETWORK_SERVER_CONNECTION_GetUserID @92
?Release@RKC_NETWORK_SERVER_CONNECTION@@QAEXXZ=o_RKC_NETWORK.?Release@RKC_NETWORK_SERVER_CONNECTION@@QAEXXZ @106
?SetID@RKC_NETWORK_SERVER_CONNECTION@@QAEXJ@Z=RKC_NETWORK_SERVER_CONNECTION_SetID @114
?SetIP@RKC_NETWORK_SERVER_CONNECTION@@QAEXPAURKC_NETWORK_IP@@@Z=RKC_NETWORK_SERVER_CONNECTION_SetIP @116
?SetSendPacket@RKC_NETWORK_SERVER_CONNECTION@@QAEJJJJPAXJHH@Z=o_RKC_NETWORK.?SetSendPacket@RKC_NETWORK_SERVER_CONNECTION@@QAEJJJJPAXJHH@Z @123
?SetSocket@RKC_NETWORK_SERVER_CONNECTION@@QAEXJI@Z=RKC_NETWORK_SERVER_CONNECTION_SetSocket @124
?SetStatus@RKC_NETWORK_SERVER_CONNECTION@@QAEXJ@Z=RKC_NETWORK_SERVER_CONNECTION_SetStatus @125
?SetUserID@RKC_NETWORK_SERVER_CONNECTION@@QAEXJ@Z=RKC_NETWORK_SERVER_CONNECTION_SetUserID @127

; ============================================================================
; RKC_NETWORK_SERVER - Server (some used by exe)
; ============================================================================
??0RKC_NETWORK_SERVER@@QAE@XZ=RKC_NETWORK_SERVER_constructor @5
??1RKC_NETWORK_SERVER@@QAE@XZ=RKC_NETWORK_SERVER_destructor @16
??4RKC_NETWORK_SERVER@@QAEAAV0@ABV0@@Z=RKC_NETWORK_SERVER_operatorAssign @27
?AcceptThreadFunction@RKC_NETWORK_SERVER@@QAEXXZ=RKC_NETWORK_SERVER_AcceptThreadFunction @34
?GetActiveConnectionCount@RKC_NETWORK_SERVER@@QAEJXZ=RKC_NETWORK_SERVER_GetActiveConnectionCount @51
?GetActiveFlag@RKC_NETWORK_SERVER@@QAEHXZ=RKC_NETWORK_SERVER_GetActiveFlag @53
?GetConnection@RKC_NETWORK_SERVER@@QAEPAVRKC_NETWORK_SERVER_CONNECTION@@J@Z=o_RKC_NETWORK.?GetConnection@RKC_NETWORK_SERVER@@QAEPAVRKC_NETWORK_SERVER_CONNECTION@@J@Z @55
?GetConnection@RKC_NETWORK_SERVER@@QAEPAVRKC_NETWORK_SERVER_CONNECTION@@JPAURKC_NETWORK_IP@@J@Z=o_RKC_NETWORK.?GetConnection@RKC_NETWORK_SERVER@@QAEPAVRKC_NETWORK_SERVER_CONNECTION@@JPAURKC_NETWORK_IP@@J@Z @56
?GetConnectionCount@RKC_NETWORK_SERVER@@QAEJXZ=o_RKC_NETWORK.?GetConnectionCount@RKC_NETWORK_SERVER@@QAEJXZ @57
?GetEmptyConnection@RKC_NETWORK_SERVER@@QAEPAVRKC_NETWORK_SERVER_CONNECTION@@XZ=RKC_NETWORK_SERVER_GetEmptyConnection @64
?GetIP@RKC_NETWORK_SERVER@@QAEXPAURKC_NETWORK_IP@@@Z=o_RKC_NETWORK.?GetIP@RKC_NETWORK_SERVER@@QAEXPAURKC_NETWORK_IP@@@Z @71
?GetSocketCount@RKC_NETWORK_SERVER@@QAEJXZ=RKC_NETWORK_SERVER_GetSocketCount @88
?GetUseConnection@RKC_NETWORK_SERVER@@QAEPAVRKC_NETWORK_SERVER_CONNECTION@@JPAURKC_NETWORK_IP@@J@Z=RKC_NETWORK_SERVER_GetUseConnection @90
?GetUserInfoBlock@RKC_NETWORK_SERVER@@QAEPAVRKC_NETWORK_USERINFOBLOCK@@XZ=RKC_NETWORK_SERVER_GetUserInfoBlock @94
?Initialize@RKC_NETWORK_SERVER@@QAEHJJPAVRKC_NETWORK_USERINFOBLOCK@@JJJ@Z=o_RKC_NETWORK.?Initialize@RKC_NETWORK_SERVER@@QAEHJJPAVRKC_NETWORK_USERINFOBLOCK@@JJJ@Z @97
?Release@RKC_NETWORK_SERVER@@QAEXXZ=o_RKC_NETWORK.?Release@RKC_NETWORK_SERVER@@QAEXXZ @105
?Start@RKC_NETWORK_SERVER@@QAEHXZ=o_RKC_NETWORK.?Start@RKC_NETWORK_SERVER@@QAEHXZ @130
?Stop@RKC_NETWORK_SERVER@@QAEHXZ=RKC_NETWORK_SERVER_Stop @131

; ============================================================================
; RKC_NETWORK_CLIENT - Client (some used by exe)
; ============================================================================
??0RKC_NETWORK_CLIENT@@QAE@XZ=RKC_NETWORK_CLIENT_constructor @2
??1RKC_NETWORK_CLIENT@@QAE@XZ=RKC_NETWORK_CLIENT_destructor @13
??4RKC_NETWORK_CLIENT@@QAEAAV0@ABV0@@Z=RKC_NETWORK_CLIENT_operatorAssign @24
?Connect@RKC_NETWORK_CLIENT@@QAEHJ@Z=o_RKC_NETWORK.?Connect@RKC_NETWORK_CLIENT@@QAEHJ@Z @37
?ConnectThread@RKC_NETWORK_CLIENT@@QAEXXZ=RKC_NETWORK_CLIENT_ConnectThread @38
?ConnectionThread@RKC_NETWORK_CLIENT@@QAEXJ@Z=RKC_NETWORK_CLIENT_ConnectionThread @39
?CreateConnectionThread@RKC_NETWORK_CLIENT@@QAEHJ@Z=RKC_NETWORK_CLIENT_CreateConnectionThread @41
?DeleteRecvPacket@RKC_NETWORK_CLIENT@@QAEHPAVRKC_NETWORK_PACKET@@@Z=o_RKC_NETWORK.?DeleteRecvPacket@RKC_NETWORK_CLIENT@@QAEHPAVRKC_NETWORK_PACKET@@@Z @46
?GetActiveFlag@RKC_NETWORK_CLIENT@@QAEHXZ=RKC_NETWORK_CLIENT_GetActiveFlag @52
?GetConnectionID@RKC_NETWORK_CLIENT@@QAEJXZ=RKC_NETWORK_CLIENT_GetConnectionID @58
?GetIP@RKC_NETWORK_CLIENT@@QAEPAURKC_NETWORK_IP@@XZ=RKC_NETWORK_CLIENT_GetIP @70
?GetMyIP@RKC_NETWORK_CLIENT@@QAEXPAURKC_NETWORK_IP@@@Z=o_RKC_NETWORK.?GetMyIP@RKC_NETWORK_CLIENT@@QAEXPAURKC_NETWORK_IP@@@Z @75
?GetRecvPacket@RKC_NETWORK_CLIENT@@QAEPAVRKC_NETWORK_PACKET@@JJ@Z=o_RKC_NETWORK.?GetRecvPacket@RKC_NETWORK_CLIENT@@QAEPAVRKC_NETWORK_PACKET@@JJ@Z @79
?GetRecvPacketBlock@RKC_NETWORK_CLIENT@@QAEPAVRKC_NETWORK_PACKETBLOCK@@XZ=o_RKC_NETWORK.?GetRecvPacketBlock@RKC_NETWORK_CLIENT@@QAEPAVRKC_NETWORK_PACKETBLOCK@@XZ @81
?GetSendPacketBlock@RKC_NETWORK_CLIENT@@QAEPAVRKC_NETWORK_PACKETBLOCK@@XZ=RKC_NETWORK_CLIENT_GetSendPacketBlock @83
?GetUserInfo@RKC_NETWORK_CLIENT@@QAEPAVRKC_NETWORK_USERINFO@@XZ=RKC_NETWORK_CLIENT_GetUserInfo @93
?Initialize@RKC_NETWORK_CLIENT@@QAEHPAURKC_NETWORK_IP@@JPAVRKC_NETWORK_USERINFO@@JJJ@Z=o_RKC_NETWORK.?Initialize@RKC_NETWORK_CLIENT@@QAEHPAURKC_NETWORK_IP@@JPAVRKC_NETWORK_USERINFO@@JJJ@Z @96
?Release@RKC_NETWORK_CLIENT@@QAEXXZ=o_RKC_NETWORK.?Release@RKC_NETWORK_CLIENT@@QAEXXZ @102
?SetSendPacket@RKC_NETWORK_CLIENT@@QAEJJJJPAXJHH@Z=o_RKC_NETWORK.?SetSendPacket@RKC_NETWORK_CLIENT@@QAEJJJJPAXJHH@Z @122
